target datalayout = "e-m:e-p270:32:32-p271:32:32-p272:64:64-i64:64-i128:128-f80:128-n8:16:32:64-S128"
target triple = "x86_64-pc-linux-gnu"

@.str.9 = private unnamed_addr constant [8 x i8] c"unknown\00", align 1
@.str.17 = private unnamed_addr constant [5 x i8] c"flex\00", align 1
@.str.18 = private unnamed_addr constant [5 x i8] c"none\00", align 1
@.str.19 = private unnamed_addr constant [9 x i8] c"contents\00", align 1

; Function Attrs: mustprogress nounwind uwtable
define ptr @YGDisplayToString(i32 noundef %0) #0 {
  %2 = alloca ptr, align 8
  %3 = alloca i32, align 4
  store i32 %0, ptr %3, align 4, !tbaa !14
  %4 = load i32, ptr %3, align 4, !tbaa !14
  switch i32 %4, label %8 [
    i32 0, label %5
    i32 1, label %6
    i32 2, label %7
  ]

5:                                                ; preds = %1
  store ptr @.str.17, ptr %2, align 8
  br label %9

6:                                                ; preds = %1
  store ptr @.str.18, ptr %2, align 8
  br label %9

7:                                                ; preds = %1
  store ptr @.str.19, ptr %2, align 8
  br label %9

8:                                                ; preds = %1
  store ptr @.str.9, ptr %2, align 8
  br label %9

9:                                                ; preds = %8, %7, %6, %5
  %10 = load ptr, ptr %2, align 8
  ret ptr %10
}